; Function Attrs: nounwind uwtable
define internal void @php_conv_qprint_encode_dtor(ptr nocapture noundef readonly %0) #0 {
  %2 = getelementptr inbounds i8, ptr %0, i64 44
  %3 = load i32, ptr %2, align 4
  %.not = icmp eq i32 %3, 0
  br i1 %.not, label %12, label %4

4:                                                ; preds = %1
  %5 = getelementptr inbounds i8, ptr %0, i64 16
  %6 = load ptr, ptr %5, align 8
  %.not5 = icmp eq ptr %6, null
  br i1 %.not5, label %12, label %7

7:                                                ; preds = %4
  %8 = getelementptr inbounds i8, ptr %0, i64 48
  %9 = load i32, ptr %8, align 8
  %.not6 = icmp eq i32 %9, 0
  br i1 %.not6, label %11, label %10

10:                                               ; preds = %7
  tail call void @free(ptr noundef nonnull %6) #18
  br label %12

11:                                               ; preds = %7
  tail call void @_efree(ptr noundef nonnull %6) #18
  br label %12

12:                                               ; preds = %10, %11, %4, %1
  ret void
}